target datalayout = "e-m:e-p270:32:32-p271:32:32-p272:64:64-i64:64-i128:128-f80:128-n8:16:32:64-S128"
target triple = "x86_64-pc-linux-gnu"

@.str.4 = private unnamed_addr constant [2 x i8] c"\0A\00", align 1
@.str.5 = private unnamed_addr constant [36 x i8] c"    iopadmap [options] [selection]\0A\00", align 1
@.str.6 = private unnamed_addr constant [66 x i8] c"Map module inputs/outputs to PAD cells from a library. This pass\0A\00", align 1
@.str.7 = private unnamed_addr constant [69 x i8] c"can only map to very simple PAD cells. Use 'techmap' to further map\0A\00", align 1
@.str.8 = private unnamed_addr constant [54 x i8] c"the resulting cells to more sophisticated PAD cells.\0A\00", align 1
@.str.9 = private unnamed_addr constant [46 x i8] c"    -inpad <celltype> <in_port>[:<ext_port>]\0A\00", align 1
@.str.10 = private unnamed_addr constant [64 x i8] c"        Map module input ports to the given cell type with the\0A\00", align 1
@.str.11 = private unnamed_addr constant [65 x i8] c"        given output port name. if a 2nd portname is given, the\0A\00", align 1
@.str.12 = private unnamed_addr constant [62 x i8] c"        signal is passed through the pad cell, using the 2nd\0A\00", align 1
@.str.13 = private unnamed_addr constant [54 x i8] c"        portname as the port facing the module port.\0A\00", align 1
@.str.14 = private unnamed_addr constant [48 x i8] c"    -outpad <celltype> <out_port>[:<ext_port>]\0A\00", align 1
@.str.15 = private unnamed_addr constant [49 x i8] c"    -inoutpad <celltype> <io_port>[:<ext_port>]\0A\00", align 1
@.str.16 = private unnamed_addr constant [60 x i8] c"        Similar to -inpad, but for output and inout ports.\0A\00", align 1
@.str.17 = private unnamed_addr constant [59 x i8] c"    -toutpad <celltype> <oe_port>:<out_port>[:<ext_port>]\0A\00", align 1
@.str.18 = private unnamed_addr constant [78 x i8] c"        Merges $_TBUF_ cells into the output pad cell. This takes precedence\0A\00", align 1
@.str.19 = private unnamed_addr constant [77 x i8] c"        over the other -outpad cell. The first portname is the enable input\0A\00", align 1
@.str.20 = private unnamed_addr constant [77 x i8] c"        of the tristate driver, which can be prefixed with `~` for negative\0A\00", align 1
@.str.21 = private unnamed_addr constant [26 x i8] c"        polarity enable.\0A\00", align 1
@.str.22 = private unnamed_addr constant [71 x i8] c"    -tinoutpad <celltype> <oe_port>:<in_port>:<out_port>[:<ext_port>]\0A\00", align 1
@.str.23 = private unnamed_addr constant [77 x i8] c"        Merges $_TBUF_ cells into the inout pad cell. This takes precedence\0A\00", align 1
@.str.24 = private unnamed_addr constant [79 x i8] c"        over the other -inoutpad cell. The first portname is the enable input\0A\00", align 1
@.str.25 = private unnamed_addr constant [76 x i8] c"        of the tristate driver and the 2nd portname is the internal output\0A\00", align 1
@.str.26 = private unnamed_addr constant [78 x i8] c"        buffering the external signal.  Like with `-toutpad`, the enable can\0A\00", align 1
@.str.27 = private unnamed_addr constant [72 x i8] c"        be marked as negative polarity by prefixing the name with `~`.\0A\00", align 1
@.str.28 = private unnamed_addr constant [49 x i8] c"    -ignore <celltype> <portname>[:<portname>]*\0A\00", align 1
@.str.29 = private unnamed_addr constant [74 x i8] c"        Skips mapping inputs/outputs that are already connected to given\0A\00", align 1
@.str.30 = private unnamed_addr constant [75 x i8] c"        ports of the given cell.  Can be used multiple times.  This is in\0A\00", align 1
@.str.31 = private unnamed_addr constant [61 x i8] c"        addition to the cells specified as mapping targets.\0A\00", align 1
@.str.32 = private unnamed_addr constant [30 x i8] c"    -widthparam <param_name>\0A\00", align 1
@.str.33 = private unnamed_addr constant [65 x i8] c"        Use the specified parameter name to set the port width.\0A\00", align 1
@.str.34 = private unnamed_addr constant [29 x i8] c"    -nameparam <param_name>\0A\00", align 1
@.str.35 = private unnamed_addr constant [59 x i8] c"        Use the specified parameter to set the port name.\0A\00", align 1
@.str.36 = private unnamed_addr constant [11 x i8] c"    -bits\0A\00", align 1
@.str.37 = private unnamed_addr constant [64 x i8] c"        create individual bit-wide buffers even for ports that\0A\00", align 1
@.str.38 = private unnamed_addr constant [65 x i8] c"        are wider. (the default behavior is to create word-wide\0A\00", align 1
@.str.39 = private unnamed_addr constant [70 x i8] c"        buffers using -widthparam to set the word size on the cell.)\0A\00", align 1
@.str.40 = private unnamed_addr constant [68 x i8] c"Tristate PADS (-toutpad, -tinoutpad) always operate in -bits mode.\0A\00", align 1

; Function Attrs: mustprogress uwtable
define internal void @_ZN12_GLOBAL__N_112IopadmapPass4helpEv(ptr noundef nonnull align 8 dereferenceable(104) %0) unnamed_addr #4 align 2 {
  %2 = alloca ptr, align 8
  store ptr %0, ptr %2, align 8, !tbaa !6
  call void (ptr, ...) @_ZN5Yosys3logEPKcz(ptr noundef @.str.4)
  call void (ptr, ...) @_ZN5Yosys3logEPKcz(ptr noundef @.str.5)
  call void (ptr, ...) @_ZN5Yosys3logEPKcz(ptr noundef @.str.4)
  call void (ptr, ...) @_ZN5Yosys3logEPKcz(ptr noundef @.str.6)
  call void (ptr, ...) @_ZN5Yosys3logEPKcz(ptr noundef @.str.7)
  call void (ptr, ...) @_ZN5Yosys3logEPKcz(ptr noundef @.str.8)
  call void (ptr, ...) @_ZN5Yosys3logEPKcz(ptr noundef @.str.4)
  call void (ptr, ...) @_ZN5Yosys3logEPKcz(ptr noundef @.str.9)
  call void (ptr, ...) @_ZN5Yosys3logEPKcz(ptr noundef @.str.10)
  call void (ptr, ...) @_ZN5Yosys3logEPKcz(ptr noundef @.str.11)
  call void (ptr, ...) @_ZN5Yosys3logEPKcz(ptr noundef @.str.12)
  call void (ptr, ...) @_ZN5Yosys3logEPKcz(ptr noundef @.str.13)
  call void (ptr, ...) @_ZN5Yosys3logEPKcz(ptr noundef @.str.4)
  call void (ptr, ...) @_ZN5Yosys3logEPKcz(ptr noundef @.str.14)
  call void (ptr, ...) @_ZN5Yosys3logEPKcz(ptr noundef @.str.15)
  call void (ptr, ...) @_ZN5Yosys3logEPKcz(ptr noundef @.str.16)
  call void (ptr, ...) @_ZN5Yosys3logEPKcz(ptr noundef @.str.4)
  call void (ptr, ...) @_ZN5Yosys3logEPKcz(ptr noundef @.str.17)
  call void (ptr, ...) @_ZN5Yosys3logEPKcz(ptr noundef @.str.18)
  call void (ptr, ...) @_ZN5Yosys3logEPKcz(ptr noundef @.str.19)
  call void (ptr, ...) @_ZN5Yosys3logEPKcz(ptr noundef @.str.20)
  call void (ptr, ...) @_ZN5Yosys3logEPKcz(ptr noundef @.str.21)
  call void (ptr, ...) @_ZN5Yosys3logEPKcz(ptr noundef @.str.4)
  call void (ptr, ...) @_ZN5Yosys3logEPKcz(ptr noundef @.str.22)
  call void (ptr, ...) @_ZN5Yosys3logEPKcz(ptr noundef @.str.23)
  call void (ptr, ...) @_ZN5Yosys3logEPKcz(ptr noundef @.str.24)
  call void (ptr, ...) @_ZN5Yosys3logEPKcz(ptr noundef @.str.25)
  call void (ptr, ...) @_ZN5Yosys3logEPKcz(ptr noundef @.str.26)
  call void (ptr, ...) @_ZN5Yosys3logEPKcz(ptr noundef @.str.27)
  call void (ptr, ...) @_ZN5Yosys3logEPKcz(ptr noundef @.str.4)
  call void (ptr, ...) @_ZN5Yosys3logEPKcz(ptr noundef @.str.28)
  call void (ptr, ...) @_ZN5Yosys3logEPKcz(ptr noundef @.str.29)
  call void (ptr, ...) @_ZN5Yosys3logEPKcz(ptr noundef @.str.30)
  call void (ptr, ...) @_ZN5Yosys3logEPKcz(ptr noundef @.str.31)
  call void (ptr, ...) @_ZN5Yosys3logEPKcz(ptr noundef @.str.4)
  call void (ptr, ...) @_ZN5Yosys3logEPKcz(ptr noundef @.str.32)
  call void (ptr, ...) @_ZN5Yosys3logEPKcz(ptr noundef @.str.33)
  call void (ptr, ...) @_ZN5Yosys3logEPKcz(ptr noundef @.str.4)
  call void (ptr, ...) @_ZN5Yosys3logEPKcz(ptr noundef @.str.34)
  call void (ptr, ...) @_ZN5Yosys3logEPKcz(ptr noundef @.str.35)
  call void (ptr, ...) @_ZN5Yosys3logEPKcz(ptr noundef @.str.4)
  call void (ptr, ...) @_ZN5Yosys3logEPKcz(ptr noundef @.str.36)
  call void (ptr, ...) @_ZN5Yosys3logEPKcz(ptr noundef @.str.37)
  call void (ptr, ...) @_ZN5Yosys3logEPKcz(ptr noundef @.str.38)
  call void (ptr, ...) @_ZN5Yosys3logEPKcz(ptr noundef @.str.39)
  call void (ptr, ...) @_ZN5Yosys3logEPKcz(ptr noundef @.str.4)
  call void (ptr, ...) @_ZN5Yosys3logEPKcz(ptr noundef @.str.40)
  call void (ptr, ...) @_ZN5Yosys3logEPKcz(ptr noundef @.str.4)
  ret void
}